; ModuleID = '6/866.c'
source_filename = "6/866.c"
target datalayout = "e-m:e-p270:32:32-p271:32:32-p272:64:64-i64:64-f80:128-n8:16:32:64-S128"
target triple = "x86_64-pc-linux-gnu"

@.str = private unnamed_addr constant [4 x i8] c"%d\0A\00", align 1
@.str.1 = private unnamed_addr constant [7 x i8] c"%d %d\0A\00", align 1
@.str.2 = private unnamed_addr constant [3 x i8] c"%d\00", align 1

; Function Attrs: noinline nounwind uwtable
define dso_local i32 @main() #0 {
  %1 = alloca i32, align 4
  %2 = alloca i32, align 4
  %3 = alloca i32, align 4
  %4 = alloca i32, align 4
  %5 = alloca i32, align 4
  %6 = alloca i32, align 4
  %7 = alloca i32, align 4
  %8 = alloca i32, align 4
  store i32 0, i32* %1, align 4
  %9 = call i32 (i8*, ...) @__isoc99_scanf(i8* getelementptr inbounds ([4 x i8], [4 x i8]* @.str, i64 0, i64 0), i32* %4)
  store i32 0, i32* %5, align 4
  br label %10

10:                                               ; preds = %56, %0
  %11 = load i32, i32* %5, align 4
  %12 = load i32, i32* %4, align 4
  %13 = icmp slt i32 %11, %12
  br i1 %13, label %14, label %59

14:                                               ; preds = %10
  %15 = call i32 (i8*, ...) @__isoc99_scanf(i8* getelementptr inbounds ([7 x i8], [7 x i8]* @.str.1, i64 0, i64 0), i32* %7, i32* %8)
  store i32 0, i32* %6, align 4
  store i32 1, i32* %3, align 4
  br label %16

16:                                               ; preds = %50, %14
  %17 = load i32, i32* %3, align 4
  %18 = load i32, i32* %7, align 4
  %19 = load i32, i32* %8, align 4
  %20 = mul nsw i32 %18, %19
  %21 = icmp sle i32 %17, %20
  br i1 %21, label %22, label %53

22:                                               ; preds = %16
  %23 = call i32 (i8*, ...) @__isoc99_scanf(i8* getelementptr inbounds ([3 x i8], [3 x i8]* @.str.2, i64 0, i64 0), i32* %2)
  %24 = load i32, i32* %3, align 4
  %25 = load i32, i32* %8, align 4
  %26 = icmp sle i32 %24, %25
  br i1 %26, label %45, label %27

27:                                               ; preds = %22
  %28 = load i32, i32* %3, align 4
  %29 = load i32, i32* %7, align 4
  %30 = load i32, i32* %8, align 4
  %31 = mul nsw i32 %29, %30
  %32 = load i32, i32* %8, align 4
  %33 = sub nsw i32 %31, %32
  %34 = icmp sgt i32 %28, %33
  br i1 %34, label %45, label %35

35:                                               ; preds = %27
  %36 = load i32, i32* %3, align 4
  %37 = load i32, i32* %8, align 4
  %38 = srem i32 %36, %37
  %39 = icmp eq i32 %38, 1
  br i1 %39, label %45, label %40

40:                                               ; preds = %35
  %41 = load i32, i32* %3, align 4
  %42 = load i32, i32* %8, align 4
  %43 = srem i32 %41, %42
  %44 = icmp eq i32 %43, 0
  br i1 %44, label %45, label %49

45:                                               ; preds = %40, %35, %27, %22
  %46 = load i32, i32* %2, align 4
  %47 = load i32, i32* %6, align 4
  %48 = add nsw i32 %47, %46
  store i32 %48, i32* %6, align 4
  br label %49

49:                                               ; preds = %45, %40
  br label %50

50:                                               ; preds = %49
  %51 = load i32, i32* %3, align 4
  %52 = add nsw i32 %51, 1
  store i32 %52, i32* %3, align 4
  br label %16

53:                                               ; preds = %16
  %54 = load i32, i32* %6, align 4
  %55 = call i32 (i8*, ...) @printf(i8* getelementptr inbounds ([4 x i8], [4 x i8]* @.str, i64 0, i64 0), i32 %54)
  br label %56

56:                                               ; preds = %53
  %57 = load i32, i32* %5, align 4
  %58 = add nsw i32 %57, 1
  store i32 %58, i32* %5, align 4
  br label %10

59:                                               ; preds = %10
  ret i32 0
}

declare dso_local i32 @__isoc99_scanf(i8*, ...) #1

declare dso_local i32 @printf(i8*, ...) #1


!llvm.module.flags = !{!0}
!llvm.ident = !{!1}

!0 = !{i32 1, !"wchar_size", i32 4}
!1 = !{!"clang version 10.0.0-4ubuntu1 "}
