; ModuleID = 'source-C-CXX/5/866.c'
source_filename = "source-C-CXX/5/866.c"
target datalayout = "e-m:e-p270:32:32-p271:32:32-p272:64:64-i64:64-f80:128-n8:16:32:64-S128"
target triple = "x86_64-pc-linux-gnu"

@.str = private unnamed_addr constant [4 x i8] c"%d\0A\00", align 1
@.str.1 = private unnamed_addr constant [7 x i8] c"%d %d\0A\00", align 1
@.str.2 = private unnamed_addr constant [3 x i8] c"%d\00", align 1

; Function Attrs: nofree nounwind sspstrong uwtable
define dso_local i32 @main() local_unnamed_addr #0 {
  %1 = alloca i32, align 4
  %2 = alloca i32, align 4
  %3 = alloca i32, align 4
  %4 = alloca i32, align 4
  %5 = bitcast i32* %1 to i8*
  call void @llvm.lifetime.start.p0i8(i64 4, i8* nonnull %5) #3
  %6 = bitcast i32* %2 to i8*
  call void @llvm.lifetime.start.p0i8(i64 4, i8* nonnull %6) #3
  %7 = bitcast i32* %3 to i8*
  call void @llvm.lifetime.start.p0i8(i64 4, i8* nonnull %7) #3
  %8 = bitcast i32* %4 to i8*
  call void @llvm.lifetime.start.p0i8(i64 4, i8* nonnull %8) #3
  %9 = call i32 (i8*, ...) @__isoc99_scanf(i8* getelementptr inbounds ([4 x i8], [4 x i8]* @.str, i64 0, i64 0), i32* nonnull %2)
  %10 = load i32, i32* %2, align 4, !tbaa !5
  %11 = icmp sgt i32 %10, 0
  br i1 %11, label %12, label %50

12:                                               ; preds = %0, %44
  %13 = phi i32 [ %47, %44 ], [ 0, %0 ]
  %14 = call i32 (i8*, ...) @__isoc99_scanf(i8* getelementptr inbounds ([7 x i8], [7 x i8]* @.str.1, i64 0, i64 0), i32* nonnull %3, i32* nonnull %4)
  %15 = load i32, i32* %3, align 4, !tbaa !5
  %16 = load i32, i32* %4, align 4, !tbaa !5
  %17 = mul nsw i32 %16, %15
  %18 = icmp slt i32 %17, 1
  br i1 %18, label %44, label %19

19:                                               ; preds = %12, %39
  %20 = phi i32 [ %41, %39 ], [ 0, %12 ]
  %21 = phi i32 [ %42, %39 ], [ 1, %12 ]
  %22 = call i32 (i8*, ...) @__isoc99_scanf(i8* getelementptr inbounds ([3 x i8], [3 x i8]* @.str.2, i64 0, i64 0), i32* nonnull %1)
  %23 = load i32, i32* %4, align 4, !tbaa !5
  %24 = icmp sgt i32 %21, %23
  %25 = load i32, i32* %3, align 4, !tbaa !5
  br i1 %24, label %28, label %26

26:                                               ; preds = %19
  %27 = mul nsw i32 %23, %25
  br label %35

28:                                               ; preds = %19
  %29 = mul nsw i32 %25, %23
  %30 = sub nsw i32 %29, %23
  %31 = icmp sgt i32 %21, %30
  br i1 %31, label %35, label %32

32:                                               ; preds = %28
  %33 = srem i32 %21, %23
  %34 = icmp ult i32 %33, 2
  br i1 %34, label %35, label %39

35:                                               ; preds = %26, %32, %28
  %36 = phi i32 [ %27, %26 ], [ %29, %32 ], [ %29, %28 ]
  %37 = load i32, i32* %1, align 4, !tbaa !5
  %38 = add nsw i32 %37, %20
  br label %39

39:                                               ; preds = %32, %35
  %40 = phi i32 [ %29, %32 ], [ %36, %35 ]
  %41 = phi i32 [ %20, %32 ], [ %38, %35 ]
  %42 = add nuw nsw i32 %21, 1
  %43 = icmp slt i32 %21, %40
  br i1 %43, label %19, label %44, !llvm.loop !9

44:                                               ; preds = %39, %12
  %45 = phi i32 [ 0, %12 ], [ %41, %39 ]
  %46 = call i32 (i8*, ...) @printf(i8* nonnull dereferenceable(1) getelementptr inbounds ([4 x i8], [4 x i8]* @.str, i64 0, i64 0), i32 %45)
  %47 = add nuw nsw i32 %13, 1
  %48 = load i32, i32* %2, align 4, !tbaa !5
  %49 = icmp slt i32 %47, %48
  br i1 %49, label %12, label %50, !llvm.loop !11

50:                                               ; preds = %44, %0
  call void @llvm.lifetime.end.p0i8(i64 4, i8* nonnull %8) #3
  call void @llvm.lifetime.end.p0i8(i64 4, i8* nonnull %7) #3
  call void @llvm.lifetime.end.p0i8(i64 4, i8* nonnull %6) #3
  call void @llvm.lifetime.end.p0i8(i64 4, i8* nonnull %5) #3
  ret i32 0
}

; Function Attrs: argmemonly mustprogress nofree nosync nounwind willreturn
declare void @llvm.lifetime.start.p0i8(i64 immarg, i8* nocapture) #1

; Function Attrs: nofree nounwind
declare noundef i32 @__isoc99_scanf(i8* nocapture noundef readonly, ...) local_unnamed_addr #2

; Function Attrs: nofree nounwind
declare noundef i32 @printf(i8* nocapture noundef readonly, ...) local_unnamed_addr #2

; Function Attrs: argmemonly mustprogress nofree nosync nounwind willreturn
declare void @llvm.lifetime.end.p0i8(i64 immarg, i8* nocapture) #1


!llvm.module.flags = !{!0, !1, !2, !3}
!llvm.ident = !{!4}

!0 = !{i32 1, !"wchar_size", i32 4}
!1 = !{i32 7, !"PIC Level", i32 2}
!2 = !{i32 7, !"PIE Level", i32 2}
!3 = !{i32 7, !"uwtable", i32 1}
!4 = !{!"clang version 13.0.0"}
!5 = !{!6, !6, i64 0}
!6 = !{!"int", !7, i64 0}
!7 = !{!"omnipotent char", !8, i64 0}
!8 = !{!"Simple C/C++ TBAA"}
!9 = distinct !{!9, !10}
!10 = !{!"llvm.loop.mustprogress"}
!11 = distinct !{!11, !10}
